target datalayout = "e-m:e-p270:32:32-p271:32:32-p272:64:64-i64:64-i128:128-f80:128-n8:16:32:64-S128"
target triple = "x86_64-pc-linux-gnu"

%struct.SDL_HIDAPI_Device = type { ptr, ptr, ptr, ptr, i16, i16, i16, ptr, %struct.SDL_GUID, i32, i32, i32, i32, i16, i16, i8, i32, i32, i32, ptr, ptr, ptr, ptr, %struct.SDL_AtomicInt, i32, ptr, i8, i8, i8, ptr, i32, ptr, ptr }
%struct.SDL_GUID = type { [16 x i8] }
%struct.SDL_AtomicInt = type { i32 }
%struct.GIP_Device = type { ptr, i64, i8, i8, i32, [8 x ptr] }
%struct.GIP_Attachment = type { ptr, i8, i32, i32, i8, i16, ptr, i32, i64, i32, i16, i16, i32, i64, i32, %struct.GIP_Metadata, i8, i8, i8, i8, i8, i32, i32, i64, i8, i8, i8, i8, i8, [64 x i8], i8, i8, i32, i32, i32, i32, i32, i32, i32, i8, i8, i32, i8, i32, i32 }
%struct.GIP_Metadata = type { i16, i16, %struct.GIP_DeviceMetadata, i8, ptr }
%struct.GIP_DeviceMetadata = type { i8, i8, i8, i8, [8 x i32], [8 x i32], ptr, ptr, ptr, ptr, i32 }
%struct.GIP_DirectMotor = type { i8, i8, i8, i8, i8, i8, i8, i8 }

@.str.6 = private unnamed_addr constant [31 x i8] c"GIP: Invalid message length %d\00", align 1
@GIP_DataClassMtu = internal constant [8 x i32] [i32 64, i32 64, i32 64, i32 2048, i32 0, i32 0, i32 0, i32 0], align 16
@.str.7 = private unnamed_addr constant [83 x i8] c"Attempted to send a message that requires fragmenting, which is not yet supported.\00", align 1
@.str.51 = private unnamed_addr constant [28 x i8] c"Couldn't send rumble packet\00", align 1

; Function Attrs: nounwind uwtable
define internal i32 @GIP_EncodeLength(i64 noundef %0, ptr noundef %1, i32 noundef %2) #0 {
  %4 = alloca i64, align 8
  %5 = alloca ptr, align 8
  %6 = alloca i32, align 4
  %7 = alloca i32, align 4
  %8 = alloca i8, align 1
  %9 = alloca i32, align 4
  store i64 %0, ptr %4, align 8
  store ptr %1, ptr %5, align 8
  store i32 %2, ptr %6, align 4
  call void @llvm.lifetime.start.p0(i64 4, ptr %7) #6
  store i32 0, ptr %7, align 4
  br label %10

10:                                               ; preds = %42, %3
  %11 = load i32, ptr %7, align 4
  %12 = load i32, ptr %6, align 4
  %13 = icmp slt i32 %11, %12
  br i1 %13, label %14, label %45

14:                                               ; preds = %10
  call void @llvm.lifetime.start.p0(i64 1, ptr %8) #6
  %15 = load i64, ptr %4, align 8
  %16 = and i64 %15, 127
  %17 = trunc i64 %16 to i8
  store i8 %17, ptr %8, align 1
  %18 = load i64, ptr %4, align 8
  %19 = lshr i64 %18, 7
  store i64 %19, ptr %4, align 8
  %20 = load i64, ptr %4, align 8
  %21 = icmp ne i64 %20, 0
  br i1 %21, label %22, label %27

22:                                               ; preds = %14
  %23 = load i8, ptr %8, align 1
  %24 = zext i8 %23 to i32
  %25 = or i32 %24, 128
  %26 = trunc i32 %25 to i8
  store i8 %26, ptr %8, align 1
  br label %27

27:                                               ; preds = %22, %14
  %28 = load i8, ptr %8, align 1
  %29 = load ptr, ptr %5, align 8
  %30 = load i32, ptr %7, align 4
  %31 = sext i32 %30 to i64
  %32 = getelementptr inbounds i8, ptr %29, i64 %31
  store i8 %28, ptr %32, align 1
  %33 = load i64, ptr %4, align 8
  %34 = icmp ne i64 %33, 0
  br i1 %34, label %38, label %35

35:                                               ; preds = %27
  %36 = load i32, ptr %7, align 4
  %37 = add nsw i32 %36, 1
  store i32 %37, ptr %7, align 4
  store i32 2, ptr %9, align 4
  br label %39

38:                                               ; preds = %27
  store i32 0, ptr %9, align 4
  br label %39

39:                                               ; preds = %38, %35
  call void @llvm.lifetime.end.p0(i64 1, ptr %8) #6
  %40 = load i32, ptr %9, align 4
  switch i32 %40, label %47 [
    i32 0, label %41
    i32 2, label %45
  ]

41:                                               ; preds = %39
  br label %42

42:                                               ; preds = %41
  %43 = load i32, ptr %7, align 4
  %44 = add nsw i32 %43, 1
  store i32 %44, ptr %7, align 4
  br label %10, !llvm.loop !12

45:                                               ; preds = %39, %10
  %46 = load i32, ptr %7, align 4
  store i32 1, ptr %9, align 4
  call void @llvm.lifetime.end.p0(i64 4, ptr %7) #6
  ret i32 %46

47:                                               ; preds = %39
  unreachable
}

; Function Attrs: nounwind uwtable
define internal zeroext i1 @GIP_SendRawMessage(ptr noundef %0, i8 noundef zeroext %1, i8 noundef zeroext %2, i8 noundef zeroext %3, ptr noundef %4, i32 noundef %5, i1 noundef zeroext %6, ptr noundef %7, ptr noundef %8) #0 {
  %10 = alloca i1, align 1
  %11 = alloca ptr, align 8
  %12 = alloca i8, align 1
  %13 = alloca i8, align 1
  %14 = alloca i8, align 1
  %15 = alloca ptr, align 8
  %16 = alloca i32, align 4
  %17 = alloca i8, align 1
  %18 = alloca ptr, align 8
  %19 = alloca ptr, align 8
  %20 = alloca [2054 x i8], align 16
  %21 = alloca i32, align 4
  %22 = alloca i32, align 4
  store ptr %0, ptr %11, align 8
  store i8 %1, ptr %12, align 1
  store i8 %2, ptr %13, align 1
  store i8 %3, ptr %14, align 1
  store ptr %4, ptr %15, align 8
  store i32 %5, ptr %16, align 4
  %23 = zext i1 %6 to i8
  store i8 %23, ptr %17, align 1
  store ptr %7, ptr %18, align 8
  store ptr %8, ptr %19, align 8
  call void @llvm.lifetime.start.p0(i64 2054, ptr %20) #6
  call void @llvm.memset.p0.i64(ptr align 16 %20, i8 0, i64 2054, i1 false)
  %24 = load i8, ptr %12, align 1
  store i8 %24, ptr %20, align 1
  %25 = getelementptr inbounds i8, ptr %20, i64 1
  %26 = load i8, ptr %13, align 1
  store i8 %26, ptr %25, align 1
  %27 = getelementptr inbounds i8, ptr %20, i64 2
  %28 = load i8, ptr %14, align 1
  store i8 %28, ptr %27, align 1
  call void @llvm.lifetime.start.p0(i64 4, ptr %21) #6
  store i32 3, ptr %21, align 4
  %29 = load i32, ptr %16, align 4
  %30 = icmp slt i32 %29, 0
  br i1 %30, label %31, label %33

31:                                               ; preds = %9
  %32 = load i32, ptr %16, align 4
  call void (i32, ptr, ...) @SDL_LogWarn_REAL(i32 noundef 7, ptr noundef @.str.6, i32 noundef %32)
  store i1 false, ptr %10, align 1
  store i32 1, ptr %22, align 4
  br label %97

33:                                               ; preds = %9
  %34 = load i32, ptr %16, align 4
  %35 = load i8, ptr %12, align 1
  %36 = zext i8 %35 to i32
  %37 = ashr i32 %36, 5
  %38 = sext i32 %37 to i64
  %39 = getelementptr inbounds [8 x i32], ptr @GIP_DataClassMtu, i64 0, i64 %38
  %40 = load i32, ptr %39, align 4
  %41 = icmp sgt i32 %34, %40
  br i1 %41, label %42, label %43

42:                                               ; preds = %33
  call void (i32, ptr, ...) @SDL_LogError_REAL(i32 noundef 7, ptr noundef @.str.7)
  store i1 false, ptr %10, align 1
  store i32 1, ptr %22, align 4
  br label %97

43:                                               ; preds = %33
  %44 = load i32, ptr %16, align 4
  %45 = sext i32 %44 to i64
  %46 = load i32, ptr %21, align 4
  %47 = sext i32 %46 to i64
  %48 = getelementptr inbounds [2054 x i8], ptr %20, i64 0, i64 %47
  %49 = load i32, ptr %21, align 4
  %50 = sext i32 %49 to i64
  %51 = sub i64 2054, %50
  %52 = trunc i64 %51 to i32
  %53 = call i32 @GIP_EncodeLength(i64 noundef %45, ptr noundef %48, i32 noundef %52)
  %54 = load i32, ptr %21, align 4
  %55 = add nsw i32 %54, %53
  store i32 %55, ptr %21, align 4
  %56 = load i32, ptr %16, align 4
  %57 = icmp sgt i32 %56, 0
  br i1 %57, label %58, label %65

58:                                               ; preds = %43
  %59 = load i32, ptr %21, align 4
  %60 = sext i32 %59 to i64
  %61 = getelementptr inbounds [2054 x i8], ptr %20, i64 0, i64 %60
  %62 = load ptr, ptr %15, align 8
  %63 = load i32, ptr %16, align 4
  %64 = sext i32 %63 to i64
  call void @llvm.memcpy.p0.p0.i64(ptr align 1 %61, ptr align 1 %62, i64 %64, i1 false)
  br label %65

65:                                               ; preds = %58, %43
  %66 = load i32, ptr %21, align 4
  %67 = load i32, ptr %16, align 4
  %68 = add nsw i32 %67, %66
  store i32 %68, ptr %16, align 4
  %69 = load i8, ptr %17, align 1, !range !3, !noundef !4
  %70 = trunc i8 %69 to i1
  br i1 %70, label %71, label %85

71:                                               ; preds = %65
  %72 = call zeroext i1 @SDL_HIDAPI_LockRumble()
  br i1 %72, label %74, label %73

73:                                               ; preds = %71
  store i1 false, ptr %10, align 1
  store i32 1, ptr %22, align 4
  br label %97

74:                                               ; preds = %71
  %75 = load ptr, ptr %11, align 8
  %76 = getelementptr inbounds nuw %struct.GIP_Device, ptr %75, i32 0, i32 0
  %77 = load ptr, ptr %76, align 8
  %78 = getelementptr inbounds [2054 x i8], ptr %20, i64 0, i64 0
  %79 = load i32, ptr %16, align 4
  %80 = load ptr, ptr %18, align 8
  %81 = load ptr, ptr %19, align 8
  %82 = call i32 @SDL_HIDAPI_SendRumbleWithCallbackAndUnlock(ptr noundef %77, ptr noundef %78, i32 noundef %79, ptr noundef %80, ptr noundef %81)
  %83 = load i32, ptr %16, align 4
  %84 = icmp eq i32 %82, %83
  store i1 %84, ptr %10, align 1
  store i32 1, ptr %22, align 4
  br label %97

85:                                               ; preds = %65
  %86 = load ptr, ptr %11, align 8
  %87 = getelementptr inbounds nuw %struct.GIP_Device, ptr %86, i32 0, i32 0
  %88 = load ptr, ptr %87, align 8
  %89 = getelementptr inbounds nuw %struct.SDL_HIDAPI_Device, ptr %88, i32 0, i32 22
  %90 = load ptr, ptr %89, align 8
  %91 = getelementptr inbounds [2054 x i8], ptr %20, i64 0, i64 0
  %92 = load i32, ptr %16, align 4
  %93 = sext i32 %92 to i64
  %94 = call i32 @SDL_hid_write_REAL(ptr noundef %90, ptr noundef %91, i64 noundef %93)
  %95 = load i32, ptr %16, align 4
  %96 = icmp eq i32 %94, %95
  store i1 %96, ptr %10, align 1
  store i32 1, ptr %22, align 4
  br label %97

97:                                               ; preds = %85, %74, %73, %42, %31
  call void @llvm.lifetime.end.p0(i64 4, ptr %21) #6
  call void @llvm.lifetime.end.p0(i64 2054, ptr %20) #6
  %98 = load i1, ptr %10, align 1
  ret i1 %98
}

; Function Attrs: nounwind uwtable
define internal zeroext i8 @GIP_SequenceNext(ptr noundef %0, i8 noundef zeroext %1, i1 noundef zeroext %2) #0 {
  %4 = alloca i8, align 1
  %5 = alloca ptr, align 8
  %6 = alloca i8, align 1
  %7 = alloca i8, align 1
  %8 = alloca i8, align 1
  %9 = alloca i32, align 4
  store ptr %0, ptr %5, align 8
  store i8 %1, ptr %6, align 1
  %10 = zext i1 %2 to i8
  store i8 %10, ptr %7, align 1
  call void @llvm.lifetime.start.p0(i64 1, ptr %8) #6
  %11 = load i8, ptr %7, align 1, !range !3, !noundef !4
  %12 = trunc i8 %11 to i1
  br i1 %12, label %13, label %69

13:                                               ; preds = %3
  %14 = load i8, ptr %6, align 1
  %15 = zext i8 %14 to i32
  switch i32 %15, label %55 [
    i32 6, label %16
    i32 30, label %29
    i32 96, label %42
  ]

16:                                               ; preds = %13
  %17 = load ptr, ptr %5, align 8
  %18 = getelementptr inbounds nuw %struct.GIP_Attachment, ptr %17, i32 0, i32 17
  %19 = load i8, ptr %18, align 1
  %20 = add i8 %19, 1
  store i8 %20, ptr %18, align 1
  store i8 %19, ptr %8, align 1
  %21 = load i8, ptr %8, align 1
  %22 = icmp ne i8 %21, 0
  br i1 %22, label %28, label %23

23:                                               ; preds = %16
  %24 = load ptr, ptr %5, align 8
  %25 = getelementptr inbounds nuw %struct.GIP_Attachment, ptr %24, i32 0, i32 17
  %26 = load i8, ptr %25, align 1
  %27 = add i8 %26, 1
  store i8 %27, ptr %25, align 1
  store i8 %26, ptr %8, align 1
  br label %28

28:                                               ; preds = %23, %16
  br label %68

29:                                               ; preds = %13
  %30 = load ptr, ptr %5, align 8
  %31 = getelementptr inbounds nuw %struct.GIP_Attachment, ptr %30, i32 0, i32 18
  %32 = load i8, ptr %31, align 2
  %33 = add i8 %32, 1
  store i8 %33, ptr %31, align 2
  store i8 %32, ptr %8, align 1
  %34 = load i8, ptr %8, align 1
  %35 = icmp ne i8 %34, 0
  br i1 %35, label %41, label %36

36:                                               ; preds = %29
  %37 = load ptr, ptr %5, align 8
  %38 = getelementptr inbounds nuw %struct.GIP_Attachment, ptr %37, i32 0, i32 18
  %39 = load i8, ptr %38, align 2
  %40 = add i8 %39, 1
  store i8 %40, ptr %38, align 2
  store i8 %39, ptr %8, align 1
  br label %41

41:                                               ; preds = %36, %29
  br label %68

42:                                               ; preds = %13
  %43 = load ptr, ptr %5, align 8
  %44 = getelementptr inbounds nuw %struct.GIP_Attachment, ptr %43, i32 0, i32 19
  %45 = load i8, ptr %44, align 1
  %46 = add i8 %45, 1
  store i8 %46, ptr %44, align 1
  store i8 %45, ptr %8, align 1
  %47 = load i8, ptr %8, align 1
  %48 = icmp ne i8 %47, 0
  br i1 %48, label %54, label %49

49:                                               ; preds = %42
  %50 = load ptr, ptr %5, align 8
  %51 = getelementptr inbounds nuw %struct.GIP_Attachment, ptr %50, i32 0, i32 19
  %52 = load i8, ptr %51, align 1
  %53 = add i8 %52, 1
  store i8 %53, ptr %51, align 1
  store i8 %52, ptr %8, align 1
  br label %54

54:                                               ; preds = %49, %42
  br label %68

55:                                               ; preds = %13
  %56 = load ptr, ptr %5, align 8
  %57 = getelementptr inbounds nuw %struct.GIP_Attachment, ptr %56, i32 0, i32 16
  %58 = load i8, ptr %57, align 8
  %59 = add i8 %58, 1
  store i8 %59, ptr %57, align 8
  store i8 %58, ptr %8, align 1
  %60 = load i8, ptr %8, align 1
  %61 = icmp ne i8 %60, 0
  br i1 %61, label %67, label %62

62:                                               ; preds = %55
  %63 = load ptr, ptr %5, align 8
  %64 = getelementptr inbounds nuw %struct.GIP_Attachment, ptr %63, i32 0, i32 16
  %65 = load i8, ptr %64, align 8
  %66 = add i8 %65, 1
  store i8 %66, ptr %64, align 8
  store i8 %65, ptr %8, align 1
  br label %67

67:                                               ; preds = %62, %55
  br label %68

68:                                               ; preds = %67, %54, %41, %28
  br label %87

69:                                               ; preds = %3
  %70 = load i8, ptr %6, align 1
  %71 = zext i8 %70 to i32
  %72 = icmp eq i32 %71, 9
  br i1 %72, label %73, label %74

73:                                               ; preds = %69
  store i8 0, ptr %4, align 1
  store i32 1, ptr %9, align 4
  br label %89

74:                                               ; preds = %69
  %75 = load ptr, ptr %5, align 8
  %76 = getelementptr inbounds nuw %struct.GIP_Attachment, ptr %75, i32 0, i32 20
  %77 = load i8, ptr %76, align 4
  %78 = add i8 %77, 1
  store i8 %78, ptr %76, align 4
  store i8 %77, ptr %8, align 1
  %79 = load i8, ptr %8, align 1
  %80 = icmp ne i8 %79, 0
  br i1 %80, label %86, label %81

81:                                               ; preds = %74
  %82 = load ptr, ptr %5, align 8
  %83 = getelementptr inbounds nuw %struct.GIP_Attachment, ptr %82, i32 0, i32 20
  %84 = load i8, ptr %83, align 4
  %85 = add i8 %84, 1
  store i8 %85, ptr %83, align 4
  store i8 %84, ptr %8, align 1
  br label %86

86:                                               ; preds = %81, %74
  br label %87

87:                                               ; preds = %86, %68
  %88 = load i8, ptr %8, align 1
  store i8 %88, ptr %4, align 1
  store i32 1, ptr %9, align 4
  br label %89

89:                                               ; preds = %87, %73
  call void @llvm.lifetime.end.p0(i64 1, ptr %8) #6
  %90 = load i8, ptr %4, align 1
  ret i8 %90
}

; Function Attrs: nounwind uwtable
define internal zeroext i1 @HIDAPI_DriverGIP_UpdateRumble(ptr noundef %0) #0 {
  %2 = alloca i1, align 1
  %3 = alloca ptr, align 8
  %4 = alloca %struct.GIP_DirectMotor, align 1
  %5 = alloca i32, align 4
  %6 = alloca i32, align 4
  %7 = alloca [9 x i8], align 1
  store ptr %0, ptr %3, align 8
  call void @llvm.lifetime.start.p0(i64 8, ptr %4) #6
  %8 = load ptr, ptr %3, align 8
  %9 = getelementptr inbounds nuw %struct.GIP_Attachment, ptr %8, i32 0, i32 37
  %10 = load i32, ptr %9, align 4
  %11 = and i32 %10, 32
  %12 = icmp ne i32 %11, 0
  br i1 %12, label %14, label %13

13:                                               ; preds = %1
  store i1 true, ptr %2, align 1
  store i32 1, ptr %5, align 4
  br label %98

14:                                               ; preds = %1
  %15 = load ptr, ptr %3, align 8
  %16 = getelementptr inbounds nuw %struct.GIP_Attachment, ptr %15, i32 0, i32 22
  %17 = load i32, ptr %16, align 4
  %18 = icmp eq i32 %17, 1
  br i1 %18, label %19, label %27

19:                                               ; preds = %14
  %20 = load ptr, ptr %3, align 8
  %21 = getelementptr inbounds nuw %struct.GIP_Attachment, ptr %20, i32 0, i32 23
  %22 = load i64, ptr %21, align 8
  %23 = icmp ne i64 %22, 0
  br i1 %23, label %24, label %27

24:                                               ; preds = %19
  %25 = load ptr, ptr %3, align 8
  %26 = getelementptr inbounds nuw %struct.GIP_Attachment, ptr %25, i32 0, i32 22
  store i32 2, ptr %26, align 4
  br label %27

27:                                               ; preds = %24, %19, %14
  %28 = load ptr, ptr %3, align 8
  %29 = getelementptr inbounds nuw %struct.GIP_Attachment, ptr %28, i32 0, i32 22
  %30 = load i32, ptr %29, align 4
  %31 = icmp eq i32 %30, 2
  br i1 %31, label %32, label %45

32:                                               ; preds = %27
  call void @llvm.lifetime.start.p0(i64 4, ptr %6) #6
  store i32 10, ptr %6, align 4
  %33 = call i64 @SDL_GetTicks_REAL()
  %34 = load ptr, ptr %3, align 8
  %35 = getelementptr inbounds nuw %struct.GIP_Attachment, ptr %34, i32 0, i32 23
  %36 = load i64, ptr %35, align 8
  %37 = add i64 %36, 10
  %38 = icmp uge i64 %33, %37
  br i1 %38, label %39, label %44

39:                                               ; preds = %32
  %40 = load ptr, ptr %3, align 8
  %41 = getelementptr inbounds nuw %struct.GIP_Attachment, ptr %40, i32 0, i32 23
  store i64 0, ptr %41, align 8
  %42 = load ptr, ptr %3, align 8
  %43 = getelementptr inbounds nuw %struct.GIP_Attachment, ptr %42, i32 0, i32 22
  store i32 0, ptr %43, align 4
  br label %44

44:                                               ; preds = %39, %32
  call void @llvm.lifetime.end.p0(i64 4, ptr %6) #6
  br label %45

45:                                               ; preds = %44, %27
  %46 = load ptr, ptr %3, align 8
  %47 = getelementptr inbounds nuw %struct.GIP_Attachment, ptr %46, i32 0, i32 24
  %48 = load i8, ptr %47, align 8, !range !3, !noundef !4
  %49 = trunc i8 %48 to i1
  br i1 %49, label %51, label %50

50:                                               ; preds = %45
  store i1 true, ptr %2, align 1
  store i32 1, ptr %5, align 4
  br label %98

51:                                               ; preds = %45
  %52 = load ptr, ptr %3, align 8
  %53 = getelementptr inbounds nuw %struct.GIP_Attachment, ptr %52, i32 0, i32 22
  %54 = load i32, ptr %53, align 4
  %55 = icmp ne i32 %54, 0
  br i1 %55, label %56, label %57

56:                                               ; preds = %51
  store i1 true, ptr %2, align 1
  store i32 1, ptr %5, align 4
  br label %98

57:                                               ; preds = %51
  %58 = load ptr, ptr %3, align 8
  %59 = getelementptr inbounds nuw %struct.GIP_Attachment, ptr %58, i32 0, i32 24
  store i8 0, ptr %59, align 8
  %60 = getelementptr inbounds nuw %struct.GIP_DirectMotor, ptr %4, i32 0, i32 0
  store i8 15, ptr %60, align 1
  %61 = load ptr, ptr %3, align 8
  %62 = getelementptr inbounds nuw %struct.GIP_Attachment, ptr %61, i32 0, i32 25
  %63 = load i8, ptr %62, align 1
  %64 = getelementptr inbounds nuw %struct.GIP_DirectMotor, ptr %4, i32 0, i32 1
  store i8 %63, ptr %64, align 1
  %65 = load ptr, ptr %3, align 8
  %66 = getelementptr inbounds nuw %struct.GIP_Attachment, ptr %65, i32 0, i32 26
  %67 = load i8, ptr %66, align 2
  %68 = getelementptr inbounds nuw %struct.GIP_DirectMotor, ptr %4, i32 0, i32 2
  store i8 %67, ptr %68, align 1
  %69 = load ptr, ptr %3, align 8
  %70 = getelementptr inbounds nuw %struct.GIP_Attachment, ptr %69, i32 0, i32 27
  %71 = load i8, ptr %70, align 1
  %72 = getelementptr inbounds nuw %struct.GIP_DirectMotor, ptr %4, i32 0, i32 3
  store i8 %71, ptr %72, align 1
  %73 = load ptr, ptr %3, align 8
  %74 = getelementptr inbounds nuw %struct.GIP_Attachment, ptr %73, i32 0, i32 28
  %75 = load i8, ptr %74, align 4
  %76 = getelementptr inbounds nuw %struct.GIP_DirectMotor, ptr %4, i32 0, i32 4
  store i8 %75, ptr %76, align 1
  %77 = getelementptr inbounds nuw %struct.GIP_DirectMotor, ptr %4, i32 0, i32 5
  store i8 -51, ptr %77, align 1
  %78 = getelementptr inbounds nuw %struct.GIP_DirectMotor, ptr %4, i32 0, i32 6
  store i8 0, ptr %78, align 1
  %79 = getelementptr inbounds nuw %struct.GIP_DirectMotor, ptr %4, i32 0, i32 7
  store i8 0, ptr %79, align 1
  call void @llvm.lifetime.start.p0(i64 9, ptr %7) #6
  call void @llvm.memset.p0.i64(ptr align 1 %7, i8 0, i64 9, i1 false)
  %80 = getelementptr inbounds [9 x i8], ptr %7, i64 0, i64 1
  call void @llvm.memcpy.p0.p0.i64(ptr align 1 %80, ptr align 1 %4, i64 8, i1 false)
  %81 = load ptr, ptr %3, align 8
  %82 = getelementptr inbounds nuw %struct.GIP_Attachment, ptr %81, i32 0, i32 0
  %83 = load ptr, ptr %82, align 8
  %84 = load ptr, ptr %3, align 8
  %85 = getelementptr inbounds nuw %struct.GIP_Attachment, ptr %84, i32 0, i32 1
  %86 = load i8, ptr %85, align 8
  %87 = load ptr, ptr %3, align 8
  %88 = call zeroext i8 @GIP_SequenceNext(ptr noundef %87, i8 noundef zeroext 9, i1 noundef zeroext false)
  %89 = getelementptr inbounds [9 x i8], ptr %7, i64 0, i64 0
  %90 = load ptr, ptr %3, align 8
  %91 = call zeroext i1 @GIP_SendRawMessage(ptr noundef %83, i8 noundef zeroext 9, i8 noundef zeroext %86, i8 noundef zeroext %88, ptr noundef %89, i32 noundef 9, i1 noundef zeroext true, ptr noundef @HIDAPI_DriverGIP_RumbleSent, ptr noundef %90)
  br i1 %91, label %94, label %92

92:                                               ; preds = %57
  %93 = call zeroext i1 (ptr, ...) @SDL_SetError_REAL(ptr noundef @.str.51)
  store i1 %93, ptr %2, align 1
  store i32 1, ptr %5, align 4
  br label %97

94:                                               ; preds = %57
  %95 = load ptr, ptr %3, align 8
  %96 = getelementptr inbounds nuw %struct.GIP_Attachment, ptr %95, i32 0, i32 22
  store i32 1, ptr %96, align 4
  store i1 true, ptr %2, align 1
  store i32 1, ptr %5, align 4
  br label %97

97:                                               ; preds = %94, %92
  call void @llvm.lifetime.end.p0(i64 9, ptr %7) #6
  br label %98

98:                                               ; preds = %97, %56, %50, %13
  call void @llvm.lifetime.end.p0(i64 8, ptr %4) #6
  %99 = load i1, ptr %2, align 1
  ret i1 %99
}