; Function Attrs: nounwind uwtable
define internal fastcc zeroext i1 @HIDAPI_DriverGIP_UpdateRumble(ptr noundef nonnull %0) unnamed_addr #0 {
  %2 = alloca [2054 x i8], align 16
  %3 = getelementptr inbounds nuw i8, ptr %0, i64 332
  %4 = load i32, ptr %3, align 4
  %5 = and i32 %4, 32
  %.not = icmp eq i32 %5, 0
  br i1 %.not, label %44, label %6

6:                                                ; preds = %1
  %7 = getelementptr inbounds nuw i8, ptr %0, i64 228
  %8 = load i32, ptr %7, align 4
  switch i32 %8, label %thread-pre-split.thread [
    i32 1, label %9
    i32 2, label %12
  ]

9:                                                ; preds = %6
  %10 = getelementptr inbounds nuw i8, ptr %0, i64 232
  %11 = load i64, ptr %10, align 8
  %.not21 = icmp eq i64 %11, 0
  br i1 %.not21, label %thread-pre-split.thread, label %.thread

.thread:                                          ; preds = %9
  store i32 2, ptr %7, align 4
  br label %12

12:                                               ; preds = %6, %.thread
  %13 = tail call i64 @SDL_GetTicks_REAL() #10
  %14 = getelementptr inbounds nuw i8, ptr %0, i64 232
  %15 = load i64, ptr %14, align 8
  %16 = add i64 %15, 10
  %.not22 = icmp ult i64 %13, %16
  br i1 %.not22, label %thread-pre-split.thread, label %17

17:                                               ; preds = %12
  store i64 0, ptr %14, align 8
  store i32 0, ptr %7, align 4
  br label %thread-pre-split.thread

thread-pre-split.thread:                          ; preds = %6, %9, %12, %17
  %18 = getelementptr inbounds nuw i8, ptr %0, i64 240
  %19 = load i8, ptr %18, align 8, !range !3, !noundef !4
  %20 = trunc nuw i8 %19 to i1
  br i1 %20, label %21, label %44

21:                                               ; preds = %thread-pre-split.thread
  %22 = load i32, ptr %7, align 4
  %.not23 = icmp eq i32 %22, 0
  br i1 %.not23, label %23, label %44

23:                                               ; preds = %21
  store i8 0, ptr %18, align 8
  %24 = getelementptr inbounds nuw i8, ptr %0, i64 241
  %25 = load i8, ptr %24, align 1
  %26 = getelementptr inbounds nuw i8, ptr %0, i64 242
  %27 = load i8, ptr %26, align 2
  %28 = getelementptr inbounds nuw i8, ptr %0, i64 243
  %29 = load i8, ptr %28, align 1
  %30 = getelementptr inbounds nuw i8, ptr %0, i64 244
  %31 = load i8, ptr %30, align 4
  %32 = load ptr, ptr %0, align 8
  %33 = getelementptr inbounds nuw i8, ptr %0, i64 8
  %34 = load i8, ptr %33, align 8
  call void @llvm.lifetime.start.p0(i64 2054, ptr nonnull %2) #10
  call void @llvm.memset.p0.i64(ptr noundef nonnull align 16 dereferenceable(2054) %2, i8 0, i64 2054, i1 false)
  store i8 9, ptr %2, align 16
  %35 = getelementptr inbounds nuw i8, ptr %2, i64 1
  store i8 %34, ptr %35, align 1
  %36 = getelementptr inbounds nuw i8, ptr %2, i64 3
  store i8 9, ptr %36, align 1
  %.sroa.4.0..sroa_idx24 = getelementptr inbounds nuw i8, ptr %2, i64 5
  store i8 15, ptr %.sroa.4.0..sroa_idx24, align 1
  %.sroa.5.0..sroa_idx25 = getelementptr inbounds nuw i8, ptr %2, i64 6
  store i8 %25, ptr %.sroa.5.0..sroa_idx25, align 2
  %.sroa.6.0..sroa_idx26 = getelementptr inbounds nuw i8, ptr %2, i64 7
  store i8 %27, ptr %.sroa.6.0..sroa_idx26, align 1
  %.sroa.7.0..sroa_idx27 = getelementptr inbounds nuw i8, ptr %2, i64 8
  store i8 %29, ptr %.sroa.7.0..sroa_idx27, align 8
  %.sroa.8.0..sroa_idx28 = getelementptr inbounds nuw i8, ptr %2, i64 9
  store i8 %31, ptr %.sroa.8.0..sroa_idx28, align 1
  %.sroa.9.0..sroa_idx29 = getelementptr inbounds nuw i8, ptr %2, i64 10
  store i8 -51, ptr %.sroa.9.0..sroa_idx29, align 2
  %.sroa.11.0..sroa_idx = getelementptr inbounds nuw i8, ptr %2, i64 12
  store i8 0, ptr %.sroa.11.0..sroa_idx, align 4
  %37 = tail call zeroext i1 @SDL_HIDAPI_LockRumble() #10
  br i1 %37, label %GIP_SendRawMessage.exit, label %GIP_SendRawMessage.exit.thread

GIP_SendRawMessage.exit.thread:                   ; preds = %23
  call void @llvm.lifetime.end.p0(i64 2054, ptr nonnull %2) #10
  br label %41

GIP_SendRawMessage.exit:                          ; preds = %23
  %38 = load ptr, ptr %32, align 8
  %39 = call i32 @SDL_HIDAPI_SendRumbleWithCallbackAndUnlock(ptr noundef %38, ptr noundef nonnull %2, i32 noundef 13, ptr noundef nonnull @HIDAPI_DriverGIP_RumbleSent, ptr noundef nonnull %0) #10
  %40 = icmp eq i32 %39, 13
  call void @llvm.lifetime.end.p0(i64 2054, ptr nonnull %2) #10
  br i1 %40, label %43, label %41

41:                                               ; preds = %GIP_SendRawMessage.exit.thread, %GIP_SendRawMessage.exit
  %42 = call zeroext i1 (ptr, ...) @SDL_SetError_REAL(ptr noundef nonnull @.str.51) #10
  br label %44

43:                                               ; preds = %GIP_SendRawMessage.exit
  store i32 1, ptr %7, align 4
  br label %44

44:                                               ; preds = %41, %43, %21, %thread-pre-split.thread, %1
  %.0 = phi i1 [ true, %1 ], [ true, %thread-pre-split.thread ], [ true, %21 ], [ true, %43 ], [ %42, %41 ]
  ret i1 %.0
}